; ModuleID = '57/2909.c'
source_filename = "57/2909.c"
target datalayout = "e-m:e-p270:32:32-p271:32:32-p272:64:64-i64:64-f80:128-n8:16:32:64-S128"
target triple = "x86_64-pc-linux-gnu"

@.str = private unnamed_addr constant [3 x i8] c"%d\00", align 1
@.str.1 = private unnamed_addr constant [3 x i8] c"%s\00", align 1
@.str.2 = private unnamed_addr constant [4 x i8] c"%s\0A\00", align 1

; Function Attrs: noinline nounwind uwtable
define dso_local i32 @main() #0 {
  %1 = alloca i32, align 4
  %2 = alloca i32, align 4
  %3 = alloca i32, align 4
  %4 = alloca [50 x i32], align 16
  %5 = alloca [50 x [32 x i8]], align 16
  store i32 0, i32* %1, align 4
  %6 = call i32 (i8*, ...) @__isoc99_scanf(i8* getelementptr inbounds ([3 x i8], [3 x i8]* @.str, i64 0, i64 0), i32* %2)
  %7 = load i32, i32* %2, align 4
  store i32 %7, i32* %3, align 4
  br label %8

8:                                                ; preds = %133, %0
  %9 = load i32, i32* %3, align 4
  %10 = icmp sgt i32 %9, 0
  br i1 %10, label %11, label %136

11:                                               ; preds = %8
  %12 = load i32, i32* %2, align 4
  %13 = load i32, i32* %3, align 4
  %14 = sub nsw i32 %12, %13
  %15 = sext i32 %14 to i64
  %16 = getelementptr inbounds [50 x [32 x i8]], [50 x [32 x i8]]* %5, i64 0, i64 %15
  %17 = getelementptr inbounds [32 x i8], [32 x i8]* %16, i64 0, i64 0
  %18 = call i32 (i8*, ...) @__isoc99_scanf(i8* getelementptr inbounds ([3 x i8], [3 x i8]* @.str.1, i64 0, i64 0), i8* %17)
  %19 = load i32, i32* %2, align 4
  %20 = load i32, i32* %3, align 4
  %21 = sub nsw i32 %19, %20
  %22 = sext i32 %21 to i64
  %23 = getelementptr inbounds [50 x [32 x i8]], [50 x [32 x i8]]* %5, i64 0, i64 %22
  %24 = getelementptr inbounds [32 x i8], [32 x i8]* %23, i64 0, i64 0
  %25 = call i64 @strlen(i8* %24) #3
  %26 = trunc i64 %25 to i32
  %27 = load i32, i32* %2, align 4
  %28 = load i32, i32* %3, align 4
  %29 = sub nsw i32 %27, %28
  %30 = sext i32 %29 to i64
  %31 = getelementptr inbounds [50 x i32], [50 x i32]* %4, i64 0, i64 %30
  store i32 %26, i32* %31, align 4
  %32 = load i32, i32* %2, align 4
  %33 = load i32, i32* %3, align 4
  %34 = sub nsw i32 %32, %33
  %35 = sext i32 %34 to i64
  %36 = getelementptr inbounds [50 x [32 x i8]], [50 x [32 x i8]]* %5, i64 0, i64 %35
  %37 = load i32, i32* %2, align 4
  %38 = load i32, i32* %3, align 4
  %39 = sub nsw i32 %37, %38
  %40 = sext i32 %39 to i64
  %41 = getelementptr inbounds [50 x i32], [50 x i32]* %4, i64 0, i64 %40
  %42 = load i32, i32* %41, align 4
  %43 = sub nsw i32 %42, 1
  %44 = sext i32 %43 to i64
  %45 = getelementptr inbounds [32 x i8], [32 x i8]* %36, i64 0, i64 %44
  %46 = load i8, i8* %45, align 1
  %47 = sext i8 %46 to i32
  %48 = icmp eq i32 %47, 114
  br i1 %48, label %49, label %64

49:                                               ; preds = %11
  %50 = load i32, i32* %2, align 4
  %51 = load i32, i32* %3, align 4
  %52 = sub nsw i32 %50, %51
  %53 = sext i32 %52 to i64
  %54 = getelementptr inbounds [50 x [32 x i8]], [50 x [32 x i8]]* %5, i64 0, i64 %53
  %55 = load i32, i32* %2, align 4
  %56 = load i32, i32* %3, align 4
  %57 = sub nsw i32 %55, %56
  %58 = sext i32 %57 to i64
  %59 = getelementptr inbounds [50 x i32], [50 x i32]* %4, i64 0, i64 %58
  %60 = load i32, i32* %59, align 4
  %61 = sub nsw i32 %60, 2
  %62 = sext i32 %61 to i64
  %63 = getelementptr inbounds [32 x i8], [32 x i8]* %54, i64 0, i64 %62
  store i8 0, i8* %63, align 1
  br label %132

64:                                               ; preds = %11
  %65 = load i32, i32* %2, align 4
  %66 = load i32, i32* %3, align 4
  %67 = sub nsw i32 %65, %66
  %68 = sext i32 %67 to i64
  %69 = getelementptr inbounds [50 x [32 x i8]], [50 x [32 x i8]]* %5, i64 0, i64 %68
  %70 = load i32, i32* %2, align 4
  %71 = load i32, i32* %3, align 4
  %72 = sub nsw i32 %70, %71
  %73 = sext i32 %72 to i64
  %74 = getelementptr inbounds [50 x i32], [50 x i32]* %4, i64 0, i64 %73
  %75 = load i32, i32* %74, align 4
  %76 = sub nsw i32 %75, 1
  %77 = sext i32 %76 to i64
  %78 = getelementptr inbounds [32 x i8], [32 x i8]* %69, i64 0, i64 %77
  %79 = load i8, i8* %78, align 1
  %80 = sext i8 %79 to i32
  %81 = icmp eq i32 %80, 121
  br i1 %81, label %82, label %97

82:                                               ; preds = %64
  %83 = load i32, i32* %2, align 4
  %84 = load i32, i32* %3, align 4
  %85 = sub nsw i32 %83, %84
  %86 = sext i32 %85 to i64
  %87 = getelementptr inbounds [50 x [32 x i8]], [50 x [32 x i8]]* %5, i64 0, i64 %86
  %88 = load i32, i32* %2, align 4
  %89 = load i32, i32* %3, align 4
  %90 = sub nsw i32 %88, %89
  %91 = sext i32 %90 to i64
  %92 = getelementptr inbounds [50 x i32], [50 x i32]* %4, i64 0, i64 %91
  %93 = load i32, i32* %92, align 4
  %94 = sub nsw i32 %93, 2
  %95 = sext i32 %94 to i64
  %96 = getelementptr inbounds [32 x i8], [32 x i8]* %87, i64 0, i64 %95
  store i8 0, i8* %96, align 1
  br label %131

97:                                               ; preds = %64
  %98 = load i32, i32* %2, align 4
  %99 = load i32, i32* %3, align 4
  %100 = sub nsw i32 %98, %99
  %101 = sext i32 %100 to i64
  %102 = getelementptr inbounds [50 x [32 x i8]], [50 x [32 x i8]]* %5, i64 0, i64 %101
  %103 = load i32, i32* %2, align 4
  %104 = load i32, i32* %3, align 4
  %105 = sub nsw i32 %103, %104
  %106 = sext i32 %105 to i64
  %107 = getelementptr inbounds [50 x i32], [50 x i32]* %4, i64 0, i64 %106
  %108 = load i32, i32* %107, align 4
  %109 = sub nsw i32 %108, 1
  %110 = sext i32 %109 to i64
  %111 = getelementptr inbounds [32 x i8], [32 x i8]* %102, i64 0, i64 %110
  %112 = load i8, i8* %111, align 1
  %113 = sext i8 %112 to i32
  %114 = icmp eq i32 %113, 103
  br i1 %114, label %115, label %130

115:                                              ; preds = %97
  %116 = load i32, i32* %2, align 4
  %117 = load i32, i32* %3, align 4
  %118 = sub nsw i32 %116, %117
  %119 = sext i32 %118 to i64
  %120 = getelementptr inbounds [50 x [32 x i8]], [50 x [32 x i8]]* %5, i64 0, i64 %119
  %121 = load i32, i32* %2, align 4
  %122 = load i32, i32* %3, align 4
  %123 = sub nsw i32 %121, %122
  %124 = sext i32 %123 to i64
  %125 = getelementptr inbounds [50 x i32], [50 x i32]* %4, i64 0, i64 %124
  %126 = load i32, i32* %125, align 4
  %127 = sub nsw i32 %126, 3
  %128 = sext i32 %127 to i64
  %129 = getelementptr inbounds [32 x i8], [32 x i8]* %120, i64 0, i64 %128
  store i8 0, i8* %129, align 1
  br label %130

130:                                              ; preds = %115, %97
  br label %131

131:                                              ; preds = %130, %82
  br label %132

132:                                              ; preds = %131, %49
  br label %133

133:                                              ; preds = %132
  %134 = load i32, i32* %3, align 4
  %135 = add nsw i32 %134, -1
  store i32 %135, i32* %3, align 4
  br label %8

136:                                              ; preds = %8
  store i32 0, i32* %3, align 4
  br label %137

137:                                              ; preds = %147, %136
  %138 = load i32, i32* %3, align 4
  %139 = load i32, i32* %2, align 4
  %140 = icmp slt i32 %138, %139
  br i1 %140, label %141, label %150

141:                                              ; preds = %137
  %142 = load i32, i32* %3, align 4
  %143 = sext i32 %142 to i64
  %144 = getelementptr inbounds [50 x [32 x i8]], [50 x [32 x i8]]* %5, i64 0, i64 %143
  %145 = getelementptr inbounds [32 x i8], [32 x i8]* %144, i64 0, i64 0
  %146 = call i32 (i8*, ...) @printf(i8* getelementptr inbounds ([4 x i8], [4 x i8]* @.str.2, i64 0, i64 0), i8* %145)
  br label %147

147:                                              ; preds = %141
  %148 = load i32, i32* %3, align 4
  %149 = add nsw i32 %148, 1
  store i32 %149, i32* %3, align 4
  br label %137

150:                                              ; preds = %137
  %151 = load i32, i32* %1, align 4
  ret i32 %151
}

declare dso_local i32 @__isoc99_scanf(i8*, ...) #1

; Function Attrs: nounwind readonly
declare dso_local i64 @strlen(i8*) #2

declare dso_local i32 @printf(i8*, ...) #1


!llvm.module.flags = !{!0}
!llvm.ident = !{!1}

!0 = !{i32 1, !"wchar_size", i32 4}
!1 = !{!"clang version 10.0.0-4ubuntu1 "}
